target datalayout = "e-m:e-p270:32:32-p271:32:32-p272:64:64-i64:64-i128:128-f80:128-n8:16:32:64-S128"
target triple = "x86_64-pc-linux-gnu"

%struct.tsi_handshaker = type { ptr, i8, i8, i8 }
%struct.tsi_handshaker_vtable = type { ptr, ptr, ptr, ptr, ptr, ptr, ptr, ptr }

; Function Attrs: mustprogress uwtable
define noundef i32 @_Z25tsi_handshaker_get_resultP14tsi_handshaker(ptr noundef %0) #5 {
  %2 = alloca i32, align 4
  %3 = alloca ptr, align 8
  store ptr %0, ptr %3, align 8, !tbaa !24
  %4 = load ptr, ptr %3, align 8, !tbaa !24
  %5 = icmp eq ptr %4, null
  br i1 %5, label %11, label %6

6:                                                ; preds = %1
  %7 = load ptr, ptr %3, align 8, !tbaa !24
  %8 = getelementptr inbounds nuw %struct.tsi_handshaker, ptr %7, i32 0, i32 0
  %9 = load ptr, ptr %8, align 8, !tbaa !26
  %10 = icmp eq ptr %9, null
  br i1 %10, label %11, label %12

11:                                               ; preds = %6, %1
  store i32 2, ptr %2, align 4
  br label %40

12:                                               ; preds = %6
  %13 = load ptr, ptr %3, align 8, !tbaa !24
  %14 = getelementptr inbounds nuw %struct.tsi_handshaker, ptr %13, i32 0, i32 1
  %15 = load i8, ptr %14, align 8, !tbaa !30, !range !31, !noundef !32
  %16 = trunc i8 %15 to i1
  br i1 %16, label %17, label %18

17:                                               ; preds = %12
  store i32 5, ptr %2, align 4
  br label %40

18:                                               ; preds = %12
  %19 = load ptr, ptr %3, align 8, !tbaa !24
  %20 = getelementptr inbounds nuw %struct.tsi_handshaker, ptr %19, i32 0, i32 3
  %21 = load i8, ptr %20, align 2, !tbaa !33, !range !31, !noundef !32
  %22 = trunc i8 %21 to i1
  br i1 %22, label %23, label %24

23:                                               ; preds = %18
  store i32 14, ptr %2, align 4
  br label %40

24:                                               ; preds = %18
  %25 = load ptr, ptr %3, align 8, !tbaa !24
  %26 = getelementptr inbounds nuw %struct.tsi_handshaker, ptr %25, i32 0, i32 0
  %27 = load ptr, ptr %26, align 8, !tbaa !26
  %28 = getelementptr inbounds nuw %struct.tsi_handshaker_vtable, ptr %27, i32 0, i32 2
  %29 = load ptr, ptr %28, align 8, !tbaa !37
  %30 = icmp eq ptr %29, null
  br i1 %30, label %31, label %32

31:                                               ; preds = %24
  store i32 6, ptr %2, align 4
  br label %40

32:                                               ; preds = %24
  %33 = load ptr, ptr %3, align 8, !tbaa !24
  %34 = getelementptr inbounds nuw %struct.tsi_handshaker, ptr %33, i32 0, i32 0
  %35 = load ptr, ptr %34, align 8, !tbaa !26
  %36 = getelementptr inbounds nuw %struct.tsi_handshaker_vtable, ptr %35, i32 0, i32 2
  %37 = load ptr, ptr %36, align 8, !tbaa !37
  %38 = load ptr, ptr %3, align 8, !tbaa !24
  %39 = call noundef i32 %37(ptr noundef %38)
  store i32 %39, ptr %2, align 4
  br label %40

40:                                               ; preds = %32, %31, %23, %17, %11
  %41 = load i32, ptr %2, align 4
  ret i32 %41
}