; Function Attrs: mustprogress uwtable
define noundef i32 @_Z25tsi_handshaker_get_resultP14tsi_handshaker(ptr noundef %0) local_unnamed_addr #4 {
  %2 = icmp eq ptr %0, null
  br i1 %2, label %20, label %3

3:                                                ; preds = %1
  %4 = load ptr, ptr %0, align 8, !tbaa !14
  %5 = icmp eq ptr %4, null
  br i1 %5, label %20, label %6

6:                                                ; preds = %3
  %7 = getelementptr inbounds nuw i8, ptr %0, i64 8
  %8 = load i8, ptr %7, align 8, !tbaa !18, !range !19, !noundef !20
  %9 = trunc nuw i8 %8 to i1
  br i1 %9, label %20, label %10

10:                                               ; preds = %6
  %11 = getelementptr inbounds nuw i8, ptr %0, i64 10
  %12 = load i8, ptr %11, align 2, !tbaa !21, !range !19, !noundef !20
  %13 = trunc nuw i8 %12 to i1
  br i1 %13, label %20, label %14

14:                                               ; preds = %10
  %15 = getelementptr inbounds nuw i8, ptr %4, i64 16
  %16 = load ptr, ptr %15, align 8, !tbaa !25
  %17 = icmp eq ptr %16, null
  br i1 %17, label %20, label %18

18:                                               ; preds = %14
  %19 = tail call noundef i32 %16(ptr noundef nonnull %0)
  br label %20

20:                                               ; preds = %14, %10, %6, %1, %3, %18
  %.0 = phi i32 [ %19, %18 ], [ 2, %3 ], [ 2, %1 ], [ 5, %6 ], [ 14, %10 ], [ 6, %14 ]
  ret i32 %.0
}